target datalayout = "e-m:e-p270:32:32-p271:32:32-p272:64:64-i64:64-i128:128-f80:128-n8:16:32:64-S128"
target triple = "x86_64-pc-linux-gnu"

%struct.xcgroup_ns_t = type { ptr, ptr, ptr, ptr }
%struct.bpf_program = type { i64, i64, ptr }

@int_cg_ns = internal global %struct.xcgroup_ns_t zeroinitializer, align 8
@stepd_scope_path = internal global ptr null, align 8
@p = internal global [9 x %struct.bpf_program] zeroinitializer, align 16
@.str.12 = private unnamed_addr constant [39 x i8] c"%s cgroup controller is not available.\00", align 1
@ctl_names = internal global [5 x ptr] [ptr @.str.173, ptr @.str.174, ptr @.str.175, ptr @.str.176, ptr @.str.177], align 16
@.str.13 = private unnamed_addr constant [46 x i8] c"%s cgroup controller is not available for %s.\00", align 1

; Function Attrs: nounwind uwtable
define dso_local i32 @cgroup_p_initialize(i32 noundef %0) #0 {
  %2 = alloca i32, align 4
  %3 = alloca i32, align 4
  %4 = alloca ptr, align 8
  %5 = alloca i32, align 4
  store i32 %0, ptr %3, align 4
  %6 = load i32, ptr %3, align 4
  switch i32 %6, label %8 [
    i32 3, label %7
    i32 0, label %58
  ]

7:                                                ; preds = %1
  call void @init_ebpf_prog(ptr noundef getelementptr inbounds ([9 x %struct.bpf_program], ptr @p, i64 0, i64 3))
  call void @init_ebpf_prog(ptr noundef getelementptr inbounds ([9 x %struct.bpf_program], ptr @p, i64 0, i64 6))
  br label %58

8:                                                ; preds = %1
  %9 = load ptr, ptr @int_cg_ns, align 8
  %10 = load i32, ptr %3, align 4
  %11 = zext i32 %10 to i64
  %12 = call i32 @slurm_bit_test(ptr noundef %9, i64 noundef %11)
  %13 = icmp ne i32 %12, 0
  br i1 %13, label %20, label %14

14:                                               ; preds = %8
  %15 = load i32, ptr %3, align 4
  %16 = zext i32 %15 to i64
  %17 = getelementptr inbounds nuw [5 x ptr], ptr @ctl_names, i64 0, i64 %16
  %18 = load ptr, ptr %17, align 8
  %19 = call i32 (ptr, ...) @error(ptr noundef @.str.12, ptr noundef %18)
  store i32 -1, ptr %2, align 4
  br label %59

20:                                               ; preds = %8
  %21 = call zeroext i1 @running_in_slurmd()
  br i1 %21, label %22, label %57

22:                                               ; preds = %20
  call void @llvm.lifetime.start.p0(i64 8, ptr %4) #10
  %23 = call ptr @bit_alloc(i64 noundef 5)
  store ptr %23, ptr %4, align 8
  %24 = load ptr, ptr @stepd_scope_path, align 8
  %25 = load ptr, ptr %4, align 8
  %26 = call i32 @_get_controllers(ptr noundef %24, ptr noundef %25)
  %27 = load ptr, ptr %4, align 8
  %28 = load i32, ptr %3, align 4
  %29 = zext i32 %28 to i64
  %30 = call i32 @slurm_bit_test(ptr noundef %27, i64 noundef %29)
  %31 = icmp ne i32 %30, 0
  br i1 %31, label %46, label %32

32:                                               ; preds = %22
  %33 = load i32, ptr %3, align 4
  %34 = zext i32 %33 to i64
  %35 = getelementptr inbounds nuw [5 x ptr], ptr @ctl_names, i64 0, i64 %34
  %36 = load ptr, ptr %35, align 8
  %37 = load ptr, ptr @stepd_scope_path, align 8
  %38 = call i32 (ptr, ...) @error(ptr noundef @.str.13, ptr noundef %36, ptr noundef %37)
  br label %39

39:                                               ; preds = %32
  %40 = load ptr, ptr %4, align 8
  %41 = icmp ne ptr %40, null
  br i1 %41, label %42, label %43

42:                                               ; preds = %39
  call void @slurm_bit_free(ptr noundef %4)
  br label %43

43:                                               ; preds = %42, %39
  store ptr null, ptr %4, align 8
  br label %44

44:                                               ; preds = %43
  br label %45

45:                                               ; preds = %44
  store i32 -1, ptr %2, align 4
  store i32 1, ptr %5, align 4
  br label %54

46:                                               ; preds = %22
  br label %47

47:                                               ; preds = %46
  %48 = load ptr, ptr %4, align 8
  %49 = icmp ne ptr %48, null
  br i1 %49, label %50, label %51

50:                                               ; preds = %47
  call void @slurm_bit_free(ptr noundef %4)
  br label %51

51:                                               ; preds = %50, %47
  store ptr null, ptr %4, align 8
  br label %52

52:                                               ; preds = %51
  br label %53

53:                                               ; preds = %52
  store i32 0, ptr %5, align 4
  br label %54

54:                                               ; preds = %53, %45
  call void @llvm.lifetime.end.p0(i64 8, ptr %4) #10
  %55 = load i32, ptr %5, align 4
  switch i32 %55, label %61 [
    i32 0, label %56
    i32 1, label %59
  ]

56:                                               ; preds = %54
  br label %57

57:                                               ; preds = %56, %20
  br label %58

58:                                               ; preds = %57, %1, %7
  store i32 0, ptr %2, align 4
  br label %59

59:                                               ; preds = %58, %54, %14
  %60 = load i32, ptr %2, align 4
  ret i32 %60

61:                                               ; preds = %54
  unreachable
}