; Function Attrs: nounwind uwtable
define dso_local range(i32 -1, 1) i32 @cgroup_p_initialize(i32 noundef %0) local_unnamed_addr #0 {
  %2 = alloca ptr, align 8
  switch i32 %0, label %4 [
    i32 3, label %3
    i32 0, label %28
  ]

3:                                                ; preds = %1
  tail call void @init_ebpf_prog(ptr noundef nonnull getelementptr inbounds nuw (i8, ptr @p, i64 72)) #17
  tail call void @init_ebpf_prog(ptr noundef nonnull getelementptr inbounds nuw (i8, ptr @p, i64 144)) #17
  br label %28

4:                                                ; preds = %1
  %5 = load ptr, ptr @int_cg_ns, align 8
  %6 = zext i32 %0 to i64
  %7 = tail call i32 @slurm_bit_test(ptr noundef %5, i64 noundef %6) #17
  %.not = icmp eq i32 %7, 0
  br i1 %.not, label %8, label %12

8:                                                ; preds = %4
  %9 = getelementptr inbounds nuw [5 x ptr], ptr @ctl_names, i64 0, i64 %6
  %10 = load ptr, ptr %9, align 8
  %11 = tail call i32 (ptr, ...) @error(ptr noundef nonnull @.str.12, ptr noundef %10) #17
  br label %28

12:                                               ; preds = %4
  %13 = tail call zeroext i1 @running_in_slurmd() #17
  br i1 %13, label %14, label %28

14:                                               ; preds = %12
  call void @llvm.lifetime.start.p0(i64 8, ptr nonnull %2) #17
  %15 = tail call ptr @bit_alloc(i64 noundef 5) #17
  store ptr %15, ptr %2, align 8
  %16 = load ptr, ptr @stepd_scope_path, align 8
  %17 = tail call fastcc i32 @_get_controllers(ptr noundef %16, ptr noundef %15)
  %18 = tail call i32 @slurm_bit_test(ptr noundef %15, i64 noundef %6) #17
  %.not8 = icmp eq i32 %18, 0
  br i1 %.not8, label %19, label %25

19:                                               ; preds = %14
  %20 = getelementptr inbounds nuw [5 x ptr], ptr @ctl_names, i64 0, i64 %6
  %21 = load ptr, ptr %20, align 8
  %22 = load ptr, ptr @stepd_scope_path, align 8
  %23 = tail call i32 (ptr, ...) @error(ptr noundef nonnull @.str.13, ptr noundef %21, ptr noundef %22) #17
  %.not9 = icmp eq ptr %15, null
  br i1 %.not9, label %27, label %24

24:                                               ; preds = %19
  call void @slurm_bit_free(ptr noundef nonnull %2) #17
  br label %27

25:                                               ; preds = %14
  %.not10 = icmp eq ptr %15, null
  br i1 %.not10, label %.thread, label %26

26:                                               ; preds = %25
  call void @slurm_bit_free(ptr noundef nonnull %2) #17
  br label %.thread

.thread:                                          ; preds = %25, %26
  call void @llvm.lifetime.end.p0(i64 8, ptr nonnull %2) #17
  br label %28

27:                                               ; preds = %19, %24
  call void @llvm.lifetime.end.p0(i64 8, ptr nonnull %2) #17
  br label %28

28:                                               ; preds = %1, %3, %12, %.thread, %27, %8
  %.07 = phi i32 [ -1, %27 ], [ -1, %8 ], [ 0, %.thread ], [ 0, %12 ], [ 0, %3 ], [ %0, %1 ]
  ret i32 %.07
}